; ModuleID = 'source-C-CXX/26/2104.c'
source_filename = "source-C-CXX/26/2104.c"
target datalayout = "e-m:e-p270:32:32-p271:32:32-p272:64:64-i64:64-f80:128-n8:16:32:64-S128"
target triple = "x86_64-pc-linux-gnu"

@.str = private unnamed_addr constant [3 x i8] c"%d\00", align 1
@.str.1 = private unnamed_addr constant [12 x i8] c"%lf %lf %lf\00", align 1
@.str.2 = private unnamed_addr constant [19 x i8] c"x1=%.5lf;x2=%.5lf\0A\00", align 1
@.str.3 = private unnamed_addr constant [13 x i8] c"x1=x2=%.5lf\0A\00", align 1
@.str.4 = private unnamed_addr constant [33 x i8] c"x1=%.5lf+%.5lfi;x2=%.5lf-%.5lfi\0A\00", align 1

; Function Attrs: nofree nounwind sspstrong uwtable
define dso_local i32 @main() local_unnamed_addr #0 {
  %1 = alloca i32, align 4
  %2 = bitcast i32* %1 to i8*
  call void @llvm.lifetime.start.p0i8(i64 4, i8* nonnull %2) #5
  %3 = call i32 (i8*, ...) @__isoc99_scanf(i8* getelementptr inbounds ([3 x i8], [3 x i8]* @.str, i64 0, i64 0), i32* nonnull %1)
  %4 = load i32, i32* %1, align 4, !tbaa !5
  %5 = sext i32 %4 to i64
  %6 = shl nsw i64 %5, 3
  %7 = call noalias align 16 i8* @malloc(i64 %6) #5
  %8 = bitcast i8* %7 to double*
  %9 = call noalias align 16 i8* @malloc(i64 %6) #5
  %10 = bitcast i8* %9 to double*
  %11 = call noalias align 16 i8* @malloc(i64 %6) #5
  %12 = bitcast i8* %11 to double*
  %13 = icmp sgt i32 %4, 0
  br i1 %13, label %16, label %75

14:                                               ; preds = %16
  %15 = icmp sgt i32 %23, 0
  br i1 %15, label %26, label %75

16:                                               ; preds = %0, %16
  %17 = phi i64 [ %22, %16 ], [ 0, %0 ]
  %18 = getelementptr inbounds double, double* %8, i64 %17
  %19 = getelementptr inbounds double, double* %10, i64 %17
  %20 = getelementptr inbounds double, double* %12, i64 %17
  %21 = call i32 (i8*, ...) @__isoc99_scanf(i8* getelementptr inbounds ([12 x i8], [12 x i8]* @.str.1, i64 0, i64 0), double* %18, double* %19, double* %20)
  %22 = add nuw nsw i64 %17, 1
  %23 = load i32, i32* %1, align 4, !tbaa !5
  %24 = sext i32 %23 to i64
  %25 = icmp slt i64 %22, %24
  br i1 %25, label %16, label %14, !llvm.loop !9

26:                                               ; preds = %14, %70
  %27 = phi i64 [ %71, %70 ], [ 0, %14 ]
  %28 = getelementptr inbounds double, double* %8, i64 %27
  %29 = load double, double* %28, align 8, !tbaa !11
  %30 = getelementptr inbounds double, double* %10, i64 %27
  %31 = load double, double* %30, align 8, !tbaa !11
  %32 = getelementptr inbounds double, double* %12, i64 %27
  %33 = load double, double* %32, align 8, !tbaa !11
  %34 = fmul double %31, %31
  %35 = fmul double %29, 4.000000e+00
  %36 = fmul double %35, %33
  %37 = fsub double %34, %36
  %38 = fcmp ogt double %37, 0.000000e+00
  br i1 %38, label %39, label %51

39:                                               ; preds = %26
  %40 = fneg double %31
  %41 = call double @sqrt(double %37) #5
  %42 = fsub double %41, %31
  %43 = fmul double %29, 2.000000e+00
  %44 = fdiv double %42, %43
  %45 = fadd double %44, 0.000000e+00
  %46 = call double @sqrt(double %37) #5
  %47 = fsub double %40, %46
  %48 = fdiv double %47, %43
  %49 = fadd double %48, 0.000000e+00
  %50 = call i32 (i8*, ...) @printf(i8* nonnull dereferenceable(1) getelementptr inbounds ([19 x i8], [19 x i8]* @.str.2, i64 0, i64 0), double %45, double %49)
  br label %51

51:                                               ; preds = %39, %26
  %52 = fcmp oeq double %37, 0.000000e+00
  br i1 %52, label %53, label %58

53:                                               ; preds = %51
  %54 = fmul double %29, 2.000000e+00
  %55 = fdiv double %31, %54
  %56 = fsub double 0.000000e+00, %55
  %57 = call i32 (i8*, ...) @printf(i8* nonnull dereferenceable(1) getelementptr inbounds ([13 x i8], [13 x i8]* @.str.3, i64 0, i64 0), double %56)
  br label %58

58:                                               ; preds = %53, %51
  %59 = fcmp olt double %37, 0.000000e+00
  br i1 %59, label %60, label %70

60:                                               ; preds = %58
  %61 = fmul double %29, 2.000000e+00
  %62 = fdiv double %31, %61
  %63 = fsub double 0.000000e+00, %62
  %64 = fsub double %36, %34
  %65 = call double @sqrt(double %64) #5
  %66 = fdiv double %65, %61
  %67 = call double @sqrt(double %64) #5
  %68 = fdiv double %67, %61
  %69 = call i32 (i8*, ...) @printf(i8* nonnull dereferenceable(1) getelementptr inbounds ([33 x i8], [33 x i8]* @.str.4, i64 0, i64 0), double %63, double %66, double %63, double %68)
  br label %70

70:                                               ; preds = %58, %60
  %71 = add nuw nsw i64 %27, 1
  %72 = load i32, i32* %1, align 4, !tbaa !5
  %73 = sext i32 %72 to i64
  %74 = icmp slt i64 %71, %73
  br i1 %74, label %26, label %75, !llvm.loop !13

75:                                               ; preds = %70, %0, %14
  call void @llvm.lifetime.end.p0i8(i64 4, i8* nonnull %2) #5
  ret i32 0
}

; Function Attrs: argmemonly mustprogress nofree nosync nounwind willreturn
declare void @llvm.lifetime.start.p0i8(i64 immarg, i8* nocapture) #1

; Function Attrs: nofree nounwind
declare noundef i32 @__isoc99_scanf(i8* nocapture noundef readonly, ...) local_unnamed_addr #2

; Function Attrs: inaccessiblememonly mustprogress nofree nounwind willreturn
declare noalias noundef align 16 i8* @malloc(i64 noundef) local_unnamed_addr #3

; Function Attrs: mustprogress nofree nounwind willreturn
declare double @sqrt(double) local_unnamed_addr #4

; Function Attrs: nofree nounwind
declare noundef i32 @printf(i8* nocapture noundef readonly, ...) local_unnamed_addr #2

; Function Attrs: argmemonly mustprogress nofree nosync nounwind willreturn
declare void @llvm.lifetime.end.p0i8(i64 immarg, i8* nocapture) #1


!llvm.module.flags = !{!0, !1, !2, !3}
!llvm.ident = !{!4}

!0 = !{i32 1, !"wchar_size", i32 4}
!1 = !{i32 7, !"PIC Level", i32 2}
!2 = !{i32 7, !"PIE Level", i32 2}
!3 = !{i32 7, !"uwtable", i32 1}
!4 = !{!"clang version 13.0.0"}
!5 = !{!6, !6, i64 0}
!6 = !{!"int", !7, i64 0}
!7 = !{!"omnipotent char", !8, i64 0}
!8 = !{!"Simple C/C++ TBAA"}
!9 = distinct !{!9, !10}
!10 = !{!"llvm.loop.mustprogress"}
!11 = !{!12, !12, i64 0}
!12 = !{!"double", !7, i64 0}
!13 = distinct !{!13, !10}
